; Function Attrs: nounwind uwtable
define i64 @ZSTDv05_decompress_usingPreparedDCtx(ptr noundef initializes((0, 26763)) %0, ptr noundef readonly captures(none) %1, ptr noundef %2, i64 noundef %3, ptr noundef %4, i64 noundef %5) local_unnamed_addr #9 {
  tail call void @llvm.memcpy.p0.p0.i64(ptr noundef nonnull align 8 dereferenceable(26763) %0, ptr noundef nonnull readonly align 8 dereferenceable(26763) %1, i64 26763, i1 false)
  %7 = getelementptr inbounds nuw i8, ptr %0, i64 26640
  %8 = load ptr, ptr %7, align 8, !tbaa !76
  %.not.i = icmp eq ptr %2, %8
  br i1 %.not.i, label %ZSTDv05_checkContinuity.exit, label %9

9:                                                ; preds = %6
  %10 = getelementptr inbounds nuw i8, ptr %0, i64 26664
  store ptr %8, ptr %10, align 8, !tbaa !77
  %11 = getelementptr inbounds nuw i8, ptr %0, i64 26648
  %12 = load ptr, ptr %11, align 8, !tbaa !78
  %13 = ptrtoint ptr %8 to i64
  %14 = ptrtoint ptr %12 to i64
  %.neg.i = sub i64 %14, %13
  %15 = getelementptr inbounds i8, ptr %2, i64 %.neg.i
  %16 = getelementptr inbounds nuw i8, ptr %0, i64 26656
  store ptr %15, ptr %16, align 8, !tbaa !79
  store ptr %2, ptr %11, align 8, !tbaa !78
  store ptr %2, ptr %7, align 8, !tbaa !76
  br label %ZSTDv05_checkContinuity.exit

ZSTDv05_checkContinuity.exit:                     ; preds = %6, %9
  %17 = tail call fastcc i64 @ZSTDv05_decompress_continueDCtx(ptr noundef nonnull %0, ptr noundef %2, i64 noundef %3, ptr noundef %4, i64 noundef %5)
  ret i64 %17
}